Certificate:
    Data:
        Version: 3 (0x2)
        Serial Number:
            36:1e:46:29:89:2c:20:d2:00:5a:5f:3b:c9:85:c8:a7:1c:b7:2d:02
        Signature Algorithm: sha256WithRSAEncryption
        Issuer: C=CA, ST=British Columbia, O=NA, OU=NA, CN=svr/emailAddress=bhill48@my.bcit.ca
        Validity
            Not Before: Feb  1 01:17:07 2022 GMT
            Not After : Jan 31 01:17:07 2025 GMT
        Subject: C=CA, ST=British Columbia, O=NA, OU=NA, CN=svr/emailAddress=bhill48@my.bcit.ca
        Subject Public Key Info:
            Public Key Algorithm: rsaEncryption
                RSA Public-Key: (2048 bit)
                Modulus:
                    00:f0:8f:c6:1c:e6:65:e2:0b:6e:f0:0c:c6:91:2a:
                    ce:31:97:57:c4:57:5a:5f:52:31:e5:37:41:41:df:
                    92:55:a5:7a:c6:58:c0:83:eb:2e:3c:44:5d:74:b4:
                    50:14:1a:1f:42:ff:43:01:f2:69:b7:03:2c:14:6d:
                    1c:f9:d4:17:56:8f:cc:e7:a2:ec:2f:bb:93:f7:0a:
                    e5:40:f6:b1:1f:87:e1:3c:e7:ff:a8:d8:91:97:dc:
                    21:0c:98:d7:70:b9:91:65:2c:48:6d:fa:7e:94:1f:
                    2b:f4:fd:5c:87:60:cc:96:26:67:f4:23:68:75:62:
                    bd:0a:44:e5:ad:6c:cc:7f:cc:eb:71:01:06:7f:a5:
                    4b:ae:89:ad:1b:76:b1:af:29:eb:4c:e2:2e:f4:b7:
                    ad:24:da:34:c4:94:c6:8b:e7:b2:dd:82:a0:88:19:
                    b4:70:eb:d6:7b:4a:a6:cf:6a:11:d3:d6:cd:2b:63:
                    51:91:fe:79:24:3a:90:81:e1:50:01:26:62:5d:b2:
                    c2:57:8a:05:50:aa:cc:c3:56:7c:32:8a:28:73:4a:
                    6f:19:61:fe:1a:21:16:7c:f7:25:d2:cb:6f:27:19:
                    d3:08:7e:0a:d0:f1:bd:d3:b2:76:0d:6e:89:c8:fd:
                    c5:5f:60:16:04:d3:c1:16:2e:55:dc:cc:93:cd:fc:
                    33:a9
                Exponent: 65537 (0x10001)
        X509v3 extensions:
            X509v3 Subject Key Identifier: 
                3E:14:88:62:14:EF:5C:AA:CD:0F:ED:66:0A:48:2C:8F:DA:9F:59:25
            X509v3 Authority Key Identifier: 
                keyid:3E:14:88:62:14:EF:5C:AA:CD:0F:ED:66:0A:48:2C:8F:DA:9F:59:25

            X509v3 Basic Constraints: critical
                CA:TRUE
    Signature Algorithm: sha256WithRSAEncryption
         66:86:81:82:4d:fe:03:bb:da:5e:93:d0:6d:d5:d5:af:fe:97:
         4d:30:95:aa:9f:1f:83:2d:d1:8b:ec:64:33:0d:f6:a4:00:30:
         e5:da:84:7a:fd:33:6f:41:80:e9:26:14:02:b0:64:d5:28:42:
         09:53:ef:20:08:91:17:48:d4:20:1c:da:34:0f:46:d0:99:5f:
         50:c2:05:fc:35:bf:b7:eb:9b:08:25:3c:9d:77:7d:d5:13:cd:
         d0:5b:1a:fc:9d:fb:aa:3c:1c:70:f7:d1:41:8c:cb:62:ea:b8:
         b9:56:6d:44:b0:ad:28:f5:51:6c:86:d3:34:a7:ce:a7:5a:74:
         17:63:a1:c6:6e:7f:7f:fb:b4:07:da:6c:e1:15:29:7a:86:9f:
         e8:72:b6:27:9f:fc:42:e4:24:54:5f:65:bf:de:83:4e:25:07:
         dc:d7:06:e4:a6:54:86:dc:a4:11:cf:0a:0f:05:2e:87:2d:29:
         c4:42:27:e9:1d:bb:8a:35:4e:5b:50:4f:2e:76:14:04:8a:61:
         14:07:b7:0d:1f:d1:88:5e:51:f3:f8:8e:08:7c:8f:ed:27:4b:
         c0:c1:72:1f:a4:94:53:0a:3f:ed:c9:15:8f:b6:cf:6f:9c:01:
         7f:ae:3c:74:46:ab:52:ba:cc:70:48:53:f7:3c:d4:84:5f:9d:
         75:52:e0:4d
-----BEGIN CERTIFICATE-----
MIIDxzCCAq+gAwIBAgIUNh5GKYksINIAWl87yYXIpxy3LQIwDQYJKoZIhvcNAQEL
BQAwczELMAkGA1UEBhMCQ0ExGTAXBgNVBAgMEEJyaXRpc2ggQ29sdW1iaWExCzAJ
BgNVBAoMAk5BMQswCQYDVQQLDAJOQTEMMAoGA1UEAwwDc3ZyMSEwHwYJKoZIhvcN
AQkBFhJiaGlsbDQ4QG15LmJjaXQuY2EwHhcNMjIwMjAxMDExNzA3WhcNMjUwMTMx
MDExNzA3WjBzMQswCQYDVQQGEwJDQTEZMBcGA1UECAwQQnJpdGlzaCBDb2x1bWJp
YTELMAkGA1UECgwCTkExCzAJBgNVBAsMAk5BMQwwCgYDVQQDDANzdnIxITAfBgkq
hkiG9w0BCQEWEmJoaWxsNDhAbXkuYmNpdC5jYTCCASIwDQYJKoZIhvcNAQEBBQAD
ggEPADCCAQoCggEBAPCPxhzmZeILbvAMxpEqzjGXV8RXWl9SMeU3QUHfklWlesZY
wIPrLjxEXXS0UBQaH0L/QwHyabcDLBRtHPnUF1aPzOei7C+7k/cK5UD2sR+H4Tzn
/6jYkZfcIQyY13C5kWUsSG36fpQfK/T9XIdgzJYmZ/QjaHVivQpE5a1szH/M63EB
Bn+lS66JrRt2sa8p60ziLvS3rSTaNMSUxovnst2CoIgZtHDr1ntKps9qEdPWzStj
UZH+eSQ6kIHhUAEmYl2ywleKBVCqzMNWfDKKKHNKbxlh/hohFnz3JdLLbycZ0wh+
CtDxvdOydg1uicj9xV9gFgTTwRYuVdzMk838M6kCAwEAAaNTMFEwHQYDVR0OBBYE
FD4UiGIU71yqzQ/tZgpILI/an1klMB8GA1UdIwQYMBaAFD4UiGIU71yqzQ/tZgpI
LI/an1klMA8GA1UdEwEB/wQFMAMBAf8wDQYJKoZIhvcNAQELBQADggEBAGaGgYJN
/gO72l6T0G3V1a/+l00wlaqfH4Mt0YvsZDMN9qQAMOXahHr9M29BgOkmFAKwZNUo
QglT7yAIkRdI1CAc2jQPRtCZX1DCBfw1v7frmwglPJ13fdUTzdBbGvyd+6o8HHD3
0UGMy2LquLlWbUSwrSj1UWyG0zSnzqdadBdjocZuf3/7tAfabOEVKXqGn+hytief
/ELkJFRfZb/eg04lB9zXBuSmVIbcpBHPCg8FLoctKcRCJ+kdu4o1TltQTy52FASK
YRQHtw0f0YheUfP4jgh8j+0nS8DBch+klFMKP+3JFY+2z2+cAX+uPHRGq1K6zHBI
U/c81IRfnXVS4E0=
-----END CERTIFICATE-----
